; Function Attrs: nofree norecurse nosync nounwind memory(readwrite, inaccessiblemem: none) uwtable
define internal noundef i32 @filter_slice_nn8(ptr noundef readonly captures(none) %0, ptr noundef readonly captures(none) %1, i32 noundef %2, i32 noundef %3) #5 {
  %5 = load ptr, ptr %1, align 8, !tbaa !43
  %6 = getelementptr inbounds nuw i8, ptr %1, i64 8
  %7 = load ptr, ptr %6, align 8, !tbaa !45
  %8 = getelementptr inbounds nuw i8, ptr %0, i64 72
  %9 = load ptr, ptr %8, align 8, !tbaa !4
  %10 = getelementptr inbounds nuw i8, ptr %9, i64 8
  %11 = load float, ptr %10, align 8, !tbaa !64
  %12 = getelementptr inbounds nuw i8, ptr %9, i64 12
  %13 = load float, ptr %12, align 4, !tbaa !65
  %14 = getelementptr inbounds nuw i8, ptr %9, i64 36
  %15 = load i32, ptr %14, align 4, !tbaa !51
  %16 = icmp sgt i32 %15, 0
  br i1 %16, label %.lr.ph, label %._crit_edge

.lr.ph:                                           ; preds = %4
  %17 = getelementptr inbounds nuw i8, ptr %9, i64 244
  %18 = getelementptr inbounds nuw i8, ptr %9, i64 248
  %19 = getelementptr inbounds nuw i8, ptr %9, i64 252
  %20 = getelementptr inbounds nuw i8, ptr %9, i64 268
  %21 = add nsw i32 %2, 1
  %22 = getelementptr inbounds nuw i8, ptr %5, i64 64
  %23 = getelementptr inbounds nuw i8, ptr %7, i64 64
  br label %24

._crit_edge:                                      ; preds = %._crit_edge91, %4
  ret i32 0

24:                                               ; preds = %.lr.ph, %._crit_edge91
  %25 = phi i32 [ %15, %.lr.ph ], [ %103, %._crit_edge91 ]
  %indvars.iv96 = phi i64 [ 0, %.lr.ph ], [ %indvars.iv.next97, %._crit_edge91 ]
  %26 = trunc i64 %indvars.iv96 to i32
  %27 = add i32 %26, -1
  %or.cond = icmp ult i32 %27, 2
  br i1 %or.cond, label %28, label %33

28:                                               ; preds = %24
  %29 = load i32, ptr %17, align 4, !tbaa !58
  %30 = sitofp i32 %29 to float
  %31 = load i32, ptr %18, align 8, !tbaa !60
  %32 = sitofp i32 %31 to float
  br label %33

33:                                               ; preds = %24, %28
  %34 = phi float [ %30, %28 ], [ 1.000000e+00, %24 ]
  %35 = phi float [ %32, %28 ], [ 1.000000e+00, %24 ]
  %36 = getelementptr inbounds nuw [4 x i32], ptr %19, i64 0, i64 %indvars.iv96
  %37 = load i32, ptr %36, align 4, !tbaa !48
  %38 = getelementptr inbounds nuw [4 x i32], ptr %20, i64 0, i64 %indvars.iv96
  %39 = load i32, ptr %38, align 4, !tbaa !48
  %40 = fmul nsz float %11, %35
  %41 = fmul nsz float %13, %34
  %42 = mul nsw i32 %39, %2
  %43 = sdiv i32 %42, %3
  %44 = mul nsw i32 %39, %21
  %45 = sdiv i32 %44, %3
  %46 = getelementptr inbounds nuw [8 x i32], ptr %22, i64 0, i64 %indvars.iv96
  %47 = load i32, ptr %46, align 4, !tbaa !48
  %48 = getelementptr inbounds nuw [8 x i32], ptr %23, i64 0, i64 %indvars.iv96
  %49 = load i32, ptr %48, align 4, !tbaa !48
  %50 = sext i32 %49 to i64
  %51 = getelementptr inbounds nuw [8 x ptr], ptr %5, i64 0, i64 %indvars.iv96
  %52 = load ptr, ptr %51, align 8, !tbaa !66
  %53 = icmp slt i32 %43, %45
  br i1 %53, label %.preheader.lr.ph, label %._crit_edge91

.preheader.lr.ph:                                 ; preds = %33
  %54 = sitofp i32 %37 to float
  %55 = fmul nsz float %41, %54
  %56 = fmul nsz float %55, 5.000000e-01
  %57 = fdiv nsz float %56, %35
  %58 = fptosi float %57 to i32
  %59 = sitofp i32 %39 to float
  %60 = fmul nsz float %40, %59
  %61 = fmul nsz float %60, 5.000000e-01
  %62 = fdiv nsz float %61, %34
  %63 = fptosi float %62 to i32
  %64 = icmp sgt i32 %37, 0
  %65 = sitofp i32 %63 to float
  %66 = sitofp i32 %58 to float
  %67 = add nsw i32 %37, -1
  %68 = add nsw i32 %39, -1
  br i1 %64, label %.preheader.us.preheader, label %._crit_edge91

.preheader.us.preheader:                          ; preds = %.preheader.lr.ph
  %69 = getelementptr inbounds nuw [8 x ptr], ptr %7, i64 0, i64 %indvars.iv96
  %70 = load ptr, ptr %69, align 8, !tbaa !66
  %71 = mul nsw i32 %49, %43
  %72 = sext i32 %71 to i64
  %73 = getelementptr inbounds i8, ptr %70, i64 %72
  %wide.trip.count = zext nneg i32 %37 to i64
  br label %.preheader.us

.preheader.us:                                    ; preds = %.preheader.us.preheader, %._crit_edge.us
  %.08190.us = phi i32 [ %102, %._crit_edge.us ], [ %43, %.preheader.us.preheader ]
  %.08289.us = phi ptr [ %101, %._crit_edge.us ], [ %73, %.preheader.us.preheader ]
  %74 = sitofp i32 %.08190.us to float
  %75 = fmul nsz float %40, %74
  %76 = fdiv nsz float %75, %34
  br label %77

77:                                               ; preds = %.preheader.us, %100
  %indvars.iv = phi i64 [ 0, %.preheader.us ], [ %indvars.iv.next, %100 ]
  %78 = trunc nuw nsw i64 %indvars.iv to i32
  %79 = uitofp nneg i32 %78 to float
  %80 = fadd nsz float %76, %79
  %81 = fsub nsz float %80, %65
  %82 = fptosi float %81 to i32
  %83 = fmul nsz float %41, %79
  %84 = fdiv nsz float %83, %35
  %85 = fadd nsz float %84, %74
  %86 = fsub nsz float %85, %66
  %87 = fptosi float %86 to i32
  %88 = icmp sgt i32 %82, -1
  br i1 %88, label %89, label %100

89:                                               ; preds = %77
  %90 = icmp sgt i32 %67, %82
  %91 = icmp sgt i32 %87, -1
  %or.cond5.us = select i1 %90, i1 %91, i1 false
  %92 = icmp sgt i32 %68, %87
  %or.cond87.us = select i1 %or.cond5.us, i1 %92, i1 false
  br i1 %or.cond87.us, label %93, label %100

93:                                               ; preds = %89
  %94 = mul nsw i32 %47, %87
  %95 = add nsw i32 %94, %82
  %96 = sext i32 %95 to i64
  %97 = getelementptr inbounds i8, ptr %52, i64 %96
  %98 = load i8, ptr %97, align 1, !tbaa !67
  %99 = getelementptr inbounds nuw i8, ptr %.08289.us, i64 %indvars.iv
  store i8 %98, ptr %99, align 1, !tbaa !67
  br label %100

100:                                              ; preds = %93, %89, %77
  %indvars.iv.next = add nuw nsw i64 %indvars.iv, 1
  %exitcond.not = icmp eq i64 %indvars.iv.next, %wide.trip.count
  br i1 %exitcond.not, label %._crit_edge.us, label %77, !llvm.loop !68

._crit_edge.us:                                   ; preds = %100
  %101 = getelementptr inbounds i8, ptr %.08289.us, i64 %50
  %102 = add nsw i32 %.08190.us, 1
  %exitcond95.not = icmp eq i32 %102, %45
  br i1 %exitcond95.not, label %._crit_edge91.loopexit, label %.preheader.us, !llvm.loop !70

._crit_edge91.loopexit:                           ; preds = %._crit_edge.us
  %.pre = load i32, ptr %14, align 4, !tbaa !51
  br label %._crit_edge91

._crit_edge91:                                    ; preds = %.preheader.lr.ph, %._crit_edge91.loopexit, %33
  %103 = phi i32 [ %.pre, %._crit_edge91.loopexit ], [ %25, %33 ], [ %25, %.preheader.lr.ph ]
  %indvars.iv.next97 = add nuw nsw i64 %indvars.iv96, 1
  %104 = sext i32 %103 to i64
  %105 = icmp slt i64 %indvars.iv.next97, %104
  br i1 %105, label %24, label %._crit_edge, !llvm.loop !71
}